#include <math.h>
#include <stdio.h>
#include <stdlib.h>
#include <string.h>

int main (){
int a;
int i;
int b,j;
double sum=0;
double l=0;
double sz[100];
double s,k;
scanf("%d",&a);
for(i=0;i<a;i++){
scanf("%d",&b);
for(j=0;j<b;j++){
scanf("%lf",&(sz[j]));}
for(j=0;j<b;j++){
sum+=sz[j];}
k=sum/b;
for(j=0;j<b;j++){
l+=(sz[j]-k)*(sz[j]-k);}
s=sqrt(l/b);

	printf("%.5lf\n",s);
sum=0;
l=0;}
return 0;}